target datalayout = "e-m:e-p270:32:32-p271:32:32-p272:64:64-i64:64-i128:128-f80:128-n8:16:32:64-S128"
target triple = "x86_64-pc-linux-gnu"

%struct.expert_field = type { i32, i32 }

@ei_pfcp_ie_data_not_decoded = internal global %struct.expert_field zeroinitializer, align 4
@dissect_pfcp_mbsn4resp_flags.pfcp_mbsn4resp_flags_o5_flags = internal constant [5 x ptr] [ptr @hf_pfcp_spare_b7_b3, ptr @hf_pfcp_mbsn4resp_flags_o5_b2_n19dtr, ptr @hf_pfcp_mbsn4resp_flags_o5_b1_jmti, ptr @hf_pfcp_mbsn4resp_flags_o5_b0_nn19dt, ptr null], align 16

; Function Attrs: null_pointer_is_valid sspstrong uwtable
define internal void @dissect_pfcp_mbsn4resp_flags(ptr noundef %0, ptr noundef %1, ptr noundef %2, ptr noundef %3, i16 noundef zeroext %4, i8 noundef zeroext %5, ptr noundef %6) #0 {
  %8 = alloca ptr, align 8
  %9 = alloca ptr, align 8
  %10 = alloca ptr, align 8
  %11 = alloca ptr, align 8
  %12 = alloca i16, align 2
  %13 = alloca i8, align 1
  %14 = alloca ptr, align 8
  %15 = alloca i32, align 4
  store ptr %0, ptr %8, align 8
  store ptr %1, ptr %9, align 8
  store ptr %2, ptr %10, align 8
  store ptr %3, ptr %11, align 8
  store i16 %4, ptr %12, align 2
  store i8 %5, ptr %13, align 1
  store ptr %6, ptr %14, align 8
  call void @llvm.lifetime.start.p0(i64 4, ptr %15) #13
  store i32 0, ptr %15, align 4
  %16 = load ptr, ptr %10, align 8
  %17 = load ptr, ptr %8, align 8
  %18 = load i32, ptr %15, align 4
  call void @proto_tree_add_bitmask_list(ptr noundef %16, ptr noundef %17, i32 noundef %18, i32 noundef 1, ptr noundef @dissect_pfcp_mbsn4resp_flags.pfcp_mbsn4resp_flags_o5_flags, i32 noundef 0)
  %19 = load i32, ptr %15, align 4
  %20 = add i32 %19, 1
  store i32 %20, ptr %15, align 4
  %21 = load i32, ptr %15, align 4
  %22 = load i16, ptr %12, align 2
  %23 = zext i16 %22 to i32
  %24 = icmp slt i32 %21, %23
  br i1 %24, label %25, label %31

25:                                               ; preds = %7
  %26 = load ptr, ptr %10, align 8
  %27 = load ptr, ptr %9, align 8
  %28 = load ptr, ptr %8, align 8
  %29 = load i32, ptr %15, align 4
  %30 = call ptr @proto_tree_add_expert(ptr noundef %26, ptr noundef %27, ptr noundef @ei_pfcp_ie_data_not_decoded, ptr noundef %28, i32 noundef %29, i32 noundef -1)
  br label %31

31:                                               ; preds = %25, %7
  call void @llvm.lifetime.end.p0(i64 4, ptr %15) #13
  ret void
}